target datalayout = "e-m:e-p270:32:32-p271:32:32-p272:64:64-i64:64-i128:128-f80:128-n8:16:32:64-S128"
target triple = "x86_64-pc-linux-gnu"

@malloc_message = dso_local global ptr null, align 8

; Function Attrs: nounwind uwtable
define hidden void @je_malloc_vcprintf(ptr noundef %0, ptr noundef %1, ptr noundef %2, ptr noundef %3) #0 {
  %5 = alloca ptr, align 8
  %6 = alloca ptr, align 8
  %7 = alloca ptr, align 8
  %8 = alloca ptr, align 8
  %9 = alloca [4096 x i8], align 16
  store ptr %0, ptr %5, align 8, !tbaa !4
  store ptr %1, ptr %6, align 8, !tbaa !4
  store ptr %2, ptr %7, align 8, !tbaa !8
  store ptr %3, ptr %8, align 8, !tbaa !24
  call void @llvm.lifetime.start.p0(i64 4096, ptr %9) #10
  %10 = load ptr, ptr %5, align 8, !tbaa !4
  %11 = icmp eq ptr %10, null
  br i1 %11, label %12, label %20

12:                                               ; preds = %4
  %13 = load ptr, ptr @malloc_message, align 8, !tbaa !4
  %14 = icmp ne ptr %13, null
  br i1 %14, label %15, label %17

15:                                               ; preds = %12
  %16 = load ptr, ptr @malloc_message, align 8, !tbaa !4
  br label %18

17:                                               ; preds = %12
  br label %18

18:                                               ; preds = %17, %15
  %19 = phi ptr [ %16, %15 ], [ @je_wrtmessage, %17 ]
  store ptr %19, ptr %5, align 8, !tbaa !4
  br label %20

20:                                               ; preds = %18, %4
  %21 = getelementptr inbounds [4096 x i8], ptr %9, i64 0, i64 0
  %22 = load ptr, ptr %7, align 8, !tbaa !8
  %23 = load ptr, ptr %8, align 8, !tbaa !24
  %24 = call i64 @je_malloc_vsnprintf(ptr noundef %21, i64 noundef 4096, ptr noundef %22, ptr noundef %23) #12
  %25 = load ptr, ptr %5, align 8, !tbaa !4
  %26 = load ptr, ptr %6, align 8, !tbaa !4
  %27 = getelementptr inbounds [4096 x i8], ptr %9, i64 0, i64 0
  call void %25(ptr noundef %26, ptr noundef %27)
  call void @llvm.lifetime.end.p0(i64 4096, ptr %9) #10
  ret void
}