; Function Attrs: cold nounwind uwtable
define hidden void @je_malloc_vcprintf(ptr noundef readonly captures(address_is_null) %0, ptr noundef %1, ptr noundef %2, ptr noundef %3) local_unnamed_addr #10 {
  %5 = alloca [4096 x i8], align 16
  call void @llvm.lifetime.start.p0(i64 4096, ptr nonnull %5) #14
  %6 = icmp eq ptr %0, null
  %7 = load ptr, ptr @malloc_message, align 8
  %.not = icmp eq ptr %7, null
  %8 = select i1 %.not, ptr @je_wrtmessage, ptr %7
  %.0 = select i1 %6, ptr %8, ptr %0
  %9 = call i64 @je_malloc_vsnprintf(ptr noundef nonnull %5, i64 noundef 4096, ptr noundef %2, ptr noundef %3) #16
  call void %.0(ptr noundef %1, ptr noundef nonnull %5) #14
  call void @llvm.lifetime.end.p0(i64 4096, ptr nonnull %5) #14
  ret void
}